target datalayout = "e-m:e-p270:32:32-p271:32:32-p272:64:64-i64:64-i128:128-f80:128-n8:16:32:64-S128"
target triple = "x86_64-pc-linux-gnu"

%struct.slurm_conf_t = type { i64, ptr, i16, ptr, ptr, ptr, ptr, ptr, i16, ptr, ptr, ptr, ptr, ptr, ptr, ptr, i16, ptr, ptr, ptr, ptr, i16, ptr, ptr, ptr, i64, ptr, ptr, ptr, ptr, i16, ptr, ptr, i16, i32, ptr, i32, ptr, i32, i32, ptr, ptr, i64, i64, ptr, i16, i16, ptr, i32, i32, ptr, i32, ptr, i32, i16, i16, i16, ptr, i16, i16, ptr, ptr, i32, i16, i16, ptr, i32, i16, ptr, ptr, ptr, ptr, i16, ptr, ptr, ptr, ptr, i32, ptr, ptr, ptr, ptr, i16, i16, ptr, i32, i32, i32, i16, i16, ptr, ptr, i16, ptr, ptr, i32, i32, i32, i32, i32, i64, i32, i32, i16, ptr, ptr, i32, ptr, ptr, ptr, i16, i32, ptr, ptr, i16, ptr, ptr, i32, i16, ptr, ptr, ptr, ptr, i32, i32, i16, i16, i32, ptr, i16, ptr, i32, i32, i32, i32, i32, i32, ptr, i16, ptr, ptr, i32, i16, ptr, i32, i16, i16, ptr, ptr, ptr, i16, ptr, ptr, ptr, ptr, i16, i16, ptr, i16, ptr, i16, ptr, i16, ptr, i16, ptr, ptr, ptr, ptr, i16, ptr, ptr, ptr, i32, ptr, i32, ptr, ptr, i16, ptr, ptr, i32, i16, ptr, ptr, i16, i16, ptr, i16, ptr, ptr, ptr, i32, ptr, i16, i16, ptr, ptr, ptr, ptr, ptr, ptr, ptr, ptr, i16, i32, i16, ptr, ptr, ptr, ptr, i32, ptr, ptr, ptr, i16, ptr, ptr, ptr, i16, ptr, i16, ptr, i16, i16, ptr }
%struct.signal_tasks_msg = type { i16, i16, %struct.slurm_step_id_msg }
%struct.slurm_step_id_msg = type { i64, i32, i32, i32 }
%struct.resource_allocation_response_msg = type { ptr, i32, ptr, i32, i32, i32, ptr, ptr, i32, ptr, i32, i32, ptr, ptr, i32, ptr, i16, i16, i16, i16, i32, ptr, i64, ptr, ptr, ptr, ptr, i32, ptr, ptr }
%struct.slurm_msg = type { %struct.sockaddr_storage, ptr, i32, i32, i32, i8, i32, i8, i32, ptr, ptr, i32, ptr, ptr, i16, i8, i16, i16, %struct.forward, ptr, %struct.sockaddr_storage, ptr }
%struct.forward = type { %struct.slurm_node_alias_addrs_t, i16, i16, ptr, i32, i16, i16 }
%struct.slurm_node_alias_addrs_t = type { i64, ptr, ptr, i32, ptr }
%struct.sockaddr_storage = type { i16, [118 x i8], i64 }
%struct.job_step_info_response_msg = type { i64, i32, ptr, ptr }
%struct.job_step_info_t = type { i32, i32, ptr, ptr, ptr, i32, i32, i32, ptr, ptr, ptr, ptr, ptr, ptr, i32, i32, ptr, ptr, i64, ptr, i32, i64, i16, i32, %struct.slurm_step_id_msg, ptr, i32, i32, ptr, ptr, ptr, ptr, ptr, ptr, ptr, i32 }

@.str.2 = private unnamed_addr constant [32 x i8] c"%s: No batch_host in allocation\00", align 1
@slurm_conf = external global %struct.slurm_conf_t, align 8
@.str.3 = private unnamed_addr constant [53 x i8] c"%s: can't find address for host %s, check slurm.conf\00", align 1
@__func__._terminate_batch_script_step = private unnamed_addr constant [29 x i8] c"_terminate_batch_script_step\00", align 1

; Function Attrs: nounwind uwtable
define internal i32 @_terminate_job_step(ptr noundef %0) #0 {
  %2 = alloca ptr, align 8
  %3 = alloca %struct.signal_tasks_msg, align 8
  %4 = alloca i32, align 4
  store ptr %0, ptr %2, align 8
  call void @llvm.lifetime.start.p0(i64 32, ptr %3) #6
  call void @llvm.lifetime.start.p0(i64 4, ptr %4) #6
  store i32 0, ptr %4, align 4
  call void @llvm.memset.p0.i64(ptr align 8 %3, i8 0, i64 32, i1 false)
  %5 = getelementptr inbounds nuw %struct.signal_tasks_msg, ptr %3, i32 0, i32 2
  %6 = load ptr, ptr %2, align 8
  %7 = getelementptr inbounds nuw %struct.job_step_info_t, ptr %6, i32 0, i32 24
  call void @llvm.memcpy.p0.p0.i64(ptr align 8 %5, ptr align 8 %7, i64 24, i1 false)
  %8 = getelementptr inbounds nuw %struct.signal_tasks_msg, ptr %3, i32 0, i32 1
  store i16 -1, ptr %8, align 2
  %9 = load ptr, ptr %2, align 8
  %10 = getelementptr inbounds nuw %struct.job_step_info_t, ptr %9, i32 0, i32 12
  %11 = load ptr, ptr %10, align 8
  %12 = call i32 @_local_send_recv_rc_msgs(ptr noundef %11, i32 noundef 6006, ptr noundef %3)
  store i32 %12, ptr %4, align 4
  %13 = load i32, ptr %4, align 4
  %14 = icmp eq i32 %13, -1
  br i1 %14, label %15, label %21

15:                                               ; preds = %1
  %16 = call ptr @__errno_location() #7
  %17 = load i32, ptr %16, align 4
  %18 = icmp eq i32 %17, 2021
  br i1 %18, label %19, label %21

19:                                               ; preds = %15
  store i32 0, ptr %4, align 4
  %20 = call ptr @__errno_location() #7
  store i32 0, ptr %20, align 4
  br label %21

21:                                               ; preds = %19, %15, %1
  %22 = load i32, ptr %4, align 4
  call void @llvm.lifetime.end.p0(i64 4, ptr %4) #6
  call void @llvm.lifetime.end.p0(i64 32, ptr %3) #6
  ret i32 %22
}

; Function Attrs: nounwind uwtable
define internal i32 @_terminate_batch_script_step(ptr noundef %0) #0 {
  %2 = alloca i32, align 4
  %3 = alloca ptr, align 8
  %4 = alloca %struct.slurm_msg, align 8
  %5 = alloca %struct.signal_tasks_msg, align 8
  %6 = alloca i32, align 4
  %7 = alloca i32, align 4
  %8 = alloca ptr, align 8
  %9 = alloca i32, align 4
  store ptr %0, ptr %3, align 8
  call void @llvm.lifetime.start.p0(i64 424, ptr %4) #6
  call void @llvm.lifetime.start.p0(i64 32, ptr %5) #6
  call void @llvm.lifetime.start.p0(i64 4, ptr %6) #6
  store i32 0, ptr %6, align 4
  call void @llvm.lifetime.start.p0(i64 4, ptr %7) #6
  call void @llvm.lifetime.start.p0(i64 8, ptr %8) #6
  %10 = load ptr, ptr %3, align 8
  %11 = getelementptr inbounds nuw %struct.resource_allocation_response_msg, ptr %10, i32 0, i32 2
  %12 = load ptr, ptr %11, align 8
  store ptr %12, ptr %8, align 8
  %13 = load ptr, ptr %8, align 8
  %14 = icmp ne ptr %13, null
  br i1 %14, label %17, label %15

15:                                               ; preds = %1
  %16 = call i32 (ptr, ...) @error(ptr noundef @.str.2, ptr noundef @__func__._terminate_batch_script_step)
  store i32 -1, ptr %2, align 4
  store i32 1, ptr %9, align 4
  br label %48

17:                                               ; preds = %1
  call void @llvm.memset.p0.i64(ptr align 8 %5, i8 0, i64 32, i1 false)
  %18 = load ptr, ptr %3, align 8
  %19 = getelementptr inbounds nuw %struct.resource_allocation_response_msg, ptr %18, i32 0, i32 1
  %20 = load i32, ptr %19, align 8
  %21 = getelementptr inbounds nuw %struct.signal_tasks_msg, ptr %5, i32 0, i32 2
  %22 = getelementptr inbounds nuw %struct.slurm_step_id_msg, ptr %21, i32 0, i32 1
  store i32 %20, ptr %22, align 8
  %23 = getelementptr inbounds nuw %struct.signal_tasks_msg, ptr %5, i32 0, i32 2
  %24 = getelementptr inbounds nuw %struct.slurm_step_id_msg, ptr %23, i32 0, i32 3
  store i32 -5, ptr %24, align 8
  %25 = getelementptr inbounds nuw %struct.signal_tasks_msg, ptr %5, i32 0, i32 2
  %26 = getelementptr inbounds nuw %struct.slurm_step_id_msg, ptr %25, i32 0, i32 2
  store i32 -2, ptr %26, align 4
  %27 = getelementptr inbounds nuw %struct.signal_tasks_msg, ptr %5, i32 0, i32 1
  store i16 -1, ptr %27, align 2
  call void @slurm_msg_t_init(ptr noundef %4)
  %28 = getelementptr inbounds nuw %struct.slurm_msg, ptr %4, i32 0, i32 16
  store i16 6006, ptr %28, align 4
  %29 = load i32, ptr getelementptr inbounds nuw (%struct.slurm_conf_t, ptr @slurm_conf, i32 0, i32 175), align 8
  call void @slurm_msg_set_r_uid(ptr noundef %4, i32 noundef %29)
  %30 = getelementptr inbounds nuw %struct.slurm_msg, ptr %4, i32 0, i32 13
  store ptr %5, ptr %30, align 8
  %31 = load ptr, ptr %8, align 8
  %32 = getelementptr inbounds nuw %struct.slurm_msg, ptr %4, i32 0, i32 0
  %33 = getelementptr inbounds nuw %struct.slurm_msg, ptr %4, i32 0, i32 14
  %34 = load i16, ptr %33, align 8
  %35 = call i32 @slurm_conf_get_addr(ptr noundef %31, ptr noundef %32, i16 noundef zeroext %34)
  %36 = icmp eq i32 %35, -1
  br i1 %36, label %37, label %40

37:                                               ; preds = %17
  %38 = load ptr, ptr %8, align 8
  %39 = call i32 (ptr, ...) @error(ptr noundef @.str.3, ptr noundef @__func__._terminate_batch_script_step, ptr noundef %38)
  store i32 -1, ptr %2, align 4
  store i32 1, ptr %9, align 4
  br label %48

40:                                               ; preds = %17
  %41 = call i32 @slurm_send_recv_rc_msg_only_one(ptr noundef %4, ptr noundef %6, i32 noundef 0)
  store i32 %41, ptr %7, align 4
  %42 = load i32, ptr %7, align 4
  %43 = icmp ne i32 %42, 0
  br i1 %43, label %44, label %46

44:                                               ; preds = %40
  %45 = load i32, ptr %7, align 4
  store i32 %45, ptr %6, align 4
  br label %46

46:                                               ; preds = %44, %40
  %47 = load i32, ptr %6, align 4
  store i32 %47, ptr %2, align 4
  store i32 1, ptr %9, align 4
  br label %48

48:                                               ; preds = %46, %37, %15
  call void @llvm.lifetime.end.p0(i64 8, ptr %8) #6
  call void @llvm.lifetime.end.p0(i64 4, ptr %7) #6
  call void @llvm.lifetime.end.p0(i64 4, ptr %6) #6
  call void @llvm.lifetime.end.p0(i64 32, ptr %5) #6
  call void @llvm.lifetime.end.p0(i64 424, ptr %4) #6
  %49 = load i32, ptr %2, align 4
  ret i32 %49
}

; Function Attrs: nounwind uwtable
define dso_local i32 @slurm_terminate_job_step(i32 noundef %0, i32 noundef %1) #0 {
  %3 = alloca i32, align 4
  %4 = alloca i32, align 4
  %5 = alloca i32, align 4
  %6 = alloca ptr, align 8
  %7 = alloca i32, align 4
  %8 = alloca i32, align 4
  %9 = alloca i32, align 4
  %10 = alloca ptr, align 8
  %11 = alloca i32, align 4
  store i32 %0, ptr %4, align 4
  store i32 %1, ptr %5, align 4
  call void @llvm.lifetime.start.p0(i64 8, ptr %6) #6
  store ptr null, ptr %6, align 8
  call void @llvm.lifetime.start.p0(i64 4, ptr %7) #6
  store i32 0, ptr %7, align 4
  call void @llvm.lifetime.start.p0(i64 4, ptr %8) #6
  call void @llvm.lifetime.start.p0(i64 4, ptr %9) #6
  store i32 0, ptr %9, align 4
  %12 = load i32, ptr %5, align 4
  %13 = icmp eq i32 %12, -5
  br i1 %13, label %14, label %29

14:                                               ; preds = %2
  call void @llvm.lifetime.start.p0(i64 8, ptr %10) #6
  store ptr null, ptr %10, align 8
  %15 = load i32, ptr %4, align 4
  %16 = call i32 @slurm_allocation_lookup(i32 noundef %15, ptr noundef %10)
  %17 = icmp ne i32 %16, 0
  br i1 %17, label %18, label %19

18:                                               ; preds = %14
  store i32 -1, ptr %3, align 4
  store i32 1, ptr %11, align 4
  br label %28

19:                                               ; preds = %14
  %20 = load ptr, ptr %10, align 8
  %21 = call i32 @_terminate_batch_script_step(ptr noundef %20)
  store i32 %21, ptr %7, align 4
  %22 = load ptr, ptr %10, align 8
  call void @slurm_free_resource_allocation_response_msg(ptr noundef %22)
  %23 = load i32, ptr %7, align 4
  %24 = call ptr @__errno_location() #7
  store i32 %23, ptr %24, align 4
  %25 = load i32, ptr %7, align 4
  %26 = icmp ne i32 %25, 0
  %27 = select i1 %26, i32 -1, i32 0
  store i32 %27, ptr %3, align 4
  store i32 1, ptr %11, align 4
  br label %28

28:                                               ; preds = %19, %18
  call void @llvm.lifetime.end.p0(i64 8, ptr %10) #6
  br label %91

29:                                               ; preds = %2
  %30 = load i32, ptr %4, align 4
  %31 = load i32, ptr %5, align 4
  %32 = call i32 @slurm_get_job_steps(i64 noundef 0, i32 noundef %30, i32 noundef %31, ptr noundef %6, i16 noundef zeroext 1)
  store i32 %32, ptr %7, align 4
  %33 = load i32, ptr %7, align 4
  %34 = icmp ne i32 %33, 0
  br i1 %34, label %35, label %38

35:                                               ; preds = %29
  %36 = call ptr @__errno_location() #7
  %37 = load i32, ptr %36, align 4
  store i32 %37, ptr %9, align 4
  br label %85

38:                                               ; preds = %29
  store i32 0, ptr %8, align 4
  br label %39

39:                                               ; preds = %80, %38
  %40 = load i32, ptr %8, align 4
  %41 = load ptr, ptr %6, align 8
  %42 = getelementptr inbounds nuw %struct.job_step_info_response_msg, ptr %41, i32 0, i32 1
  %43 = load i32, ptr %42, align 8
  %44 = icmp ult i32 %40, %43
  br i1 %44, label %45, label %83

45:                                               ; preds = %39
  %46 = load ptr, ptr %6, align 8
  %47 = getelementptr inbounds nuw %struct.job_step_info_response_msg, ptr %46, i32 0, i32 2
  %48 = load ptr, ptr %47, align 8
  %49 = load i32, ptr %8, align 4
  %50 = sext i32 %49 to i64
  %51 = getelementptr inbounds %struct.job_step_info_t, ptr %48, i64 %50
  %52 = getelementptr inbounds nuw %struct.job_step_info_t, ptr %51, i32 0, i32 24
  %53 = getelementptr inbounds nuw %struct.slurm_step_id_msg, ptr %52, i32 0, i32 1
  %54 = load i32, ptr %53, align 8
  %55 = load i32, ptr %4, align 4
  %56 = icmp eq i32 %54, %55
  br i1 %56, label %57, label %79

57:                                               ; preds = %45
  %58 = load ptr, ptr %6, align 8
  %59 = getelementptr inbounds nuw %struct.job_step_info_response_msg, ptr %58, i32 0, i32 2
  %60 = load ptr, ptr %59, align 8
  %61 = load i32, ptr %8, align 4
  %62 = sext i32 %61 to i64
  %63 = getelementptr inbounds %struct.job_step_info_t, ptr %60, i64 %62
  %64 = getelementptr inbounds nuw %struct.job_step_info_t, ptr %63, i32 0, i32 24
  %65 = getelementptr inbounds nuw %struct.slurm_step_id_msg, ptr %64, i32 0, i32 3
  %66 = load i32, ptr %65, align 8
  %67 = load i32, ptr %5, align 4
  %68 = icmp eq i32 %66, %67
  br i1 %68, label %69, label %79

69:                                               ; preds = %57
  %70 = load ptr, ptr %6, align 8
  %71 = getelementptr inbounds nuw %struct.job_step_info_response_msg, ptr %70, i32 0, i32 2
  %72 = load ptr, ptr %71, align 8
  %73 = load i32, ptr %8, align 4
  %74 = sext i32 %73 to i64
  %75 = getelementptr inbounds %struct.job_step_info_t, ptr %72, i64 %74
  %76 = call i32 @_terminate_job_step(ptr noundef %75)
  store i32 %76, ptr %7, align 4
  %77 = call ptr @__errno_location() #7
  %78 = load i32, ptr %77, align 4
  store i32 %78, ptr %9, align 4
  br label %83

79:                                               ; preds = %57, %45
  br label %80

80:                                               ; preds = %79
  %81 = load i32, ptr %8, align 4
  %82 = add nsw i32 %81, 1
  store i32 %82, ptr %8, align 4
  br label %39, !llvm.loop !12

83:                                               ; preds = %69, %39
  %84 = load ptr, ptr %6, align 8
  call void @slurm_free_job_step_info_response_msg(ptr noundef %84)
  br label %85

85:                                               ; preds = %83, %35
  %86 = load i32, ptr %9, align 4
  %87 = call ptr @__errno_location() #7
  store i32 %86, ptr %87, align 4
  %88 = load i32, ptr %7, align 4
  %89 = icmp ne i32 %88, 0
  %90 = select i1 %89, i32 -1, i32 0
  store i32 %90, ptr %3, align 4
  store i32 1, ptr %11, align 4
  br label %91

91:                                               ; preds = %85, %28
  call void @llvm.lifetime.end.p0(i64 4, ptr %9) #6
  call void @llvm.lifetime.end.p0(i64 4, ptr %8) #6
  call void @llvm.lifetime.end.p0(i64 4, ptr %7) #6
  call void @llvm.lifetime.end.p0(i64 8, ptr %6) #6
  %92 = load i32, ptr %3, align 4
  ret i32 %92
}