; Function Attrs: nounwind uwtable
define dso_local range(i32 -1, 1) i32 @slurm_terminate_job_step(i32 noundef %0, i32 noundef %1) local_unnamed_addr #0 {
  %3 = alloca %struct.signal_tasks_msg, align 8
  %4 = alloca %struct.slurm_msg, align 8
  %5 = alloca %struct.signal_tasks_msg, align 8
  %6 = alloca i32, align 4
  %7 = alloca ptr, align 8
  %8 = alloca ptr, align 8
  call void @llvm.lifetime.start.p0(i64 8, ptr nonnull %7) #6
  store ptr null, ptr %7, align 8
  %9 = icmp eq i32 %1, -5
  br i1 %9, label %10, label %40

10:                                               ; preds = %2
  call void @llvm.lifetime.start.p0(i64 8, ptr nonnull %8) #6
  store ptr null, ptr %8, align 8
  %11 = call i32 @slurm_allocation_lookup(i32 noundef %0, ptr noundef nonnull %8) #6
  %.not26 = icmp eq i32 %11, 0
  br i1 %.not26, label %12, label %39

12:                                               ; preds = %10
  %13 = load ptr, ptr %8, align 8
  call void @llvm.lifetime.start.p0(i64 424, ptr nonnull %4) #6
  call void @llvm.lifetime.start.p0(i64 32, ptr nonnull %5) #6
  call void @llvm.lifetime.start.p0(i64 4, ptr nonnull %6) #6
  store i32 0, ptr %6, align 4
  %14 = getelementptr inbounds nuw i8, ptr %13, i64 16
  %15 = load ptr, ptr %14, align 8
  %.not.i = icmp eq ptr %15, null
  br i1 %.not.i, label %16, label %18

16:                                               ; preds = %12
  %17 = call i32 (ptr, ...) @error(ptr noundef nonnull @.str.2, ptr noundef nonnull @__func__._terminate_batch_script_step) #6
  br label %_terminate_batch_script_step.exit

18:                                               ; preds = %12
  call void @llvm.memset.p0.i64(ptr noundef nonnull align 8 dereferenceable(32) %5, i8 0, i64 32, i1 false)
  %19 = getelementptr inbounds nuw i8, ptr %13, i64 8
  %20 = load i32, ptr %19, align 8
  %21 = getelementptr inbounds nuw i8, ptr %5, i64 16
  store i32 %20, ptr %21, align 8
  %22 = getelementptr inbounds nuw i8, ptr %5, i64 24
  store i32 -5, ptr %22, align 8
  %23 = getelementptr inbounds nuw i8, ptr %5, i64 20
  store i32 -2, ptr %23, align 4
  %24 = getelementptr inbounds nuw i8, ptr %5, i64 2
  store i16 -1, ptr %24, align 2
  call void @slurm_msg_t_init(ptr noundef nonnull %4) #6
  %25 = getelementptr inbounds nuw i8, ptr %4, i64 212
  store i16 6006, ptr %25, align 4
  %26 = load i32, ptr getelementptr inbounds nuw (i8, ptr @slurm_conf, i64 1168), align 8
  call void @slurm_msg_set_r_uid(ptr noundef nonnull %4, i32 noundef %26) #6
  %27 = getelementptr inbounds nuw i8, ptr %4, i64 200
  store ptr %5, ptr %27, align 8
  %28 = getelementptr inbounds nuw i8, ptr %4, i64 208
  %29 = load i16, ptr %28, align 8
  %30 = call i32 @slurm_conf_get_addr(ptr noundef nonnull %15, ptr noundef nonnull %4, i16 noundef zeroext %29) #6
  %31 = icmp eq i32 %30, -1
  br i1 %31, label %32, label %34

32:                                               ; preds = %18
  %33 = call i32 (ptr, ...) @error(ptr noundef nonnull @.str.3, ptr noundef nonnull @__func__._terminate_batch_script_step, ptr noundef nonnull %15) #6
  br label %_terminate_batch_script_step.exit

34:                                               ; preds = %18
  %35 = call i32 @slurm_send_recv_rc_msg_only_one(ptr noundef nonnull %4, ptr noundef nonnull %6, i32 noundef 0) #6
  %.not9.i = icmp eq i32 %35, 0
  %.pre.i = load i32, ptr %6, align 4
  %spec.select.i = select i1 %.not9.i, i32 %.pre.i, i32 %35
  br label %_terminate_batch_script_step.exit

_terminate_batch_script_step.exit:                ; preds = %16, %32, %34
  %.0.i = phi i32 [ -1, %32 ], [ -1, %16 ], [ %spec.select.i, %34 ]
  call void @llvm.lifetime.end.p0(i64 4, ptr nonnull %6) #6
  call void @llvm.lifetime.end.p0(i64 32, ptr nonnull %5) #6
  call void @llvm.lifetime.end.p0(i64 424, ptr nonnull %4) #6
  %36 = load ptr, ptr %8, align 8
  call void @slurm_free_resource_allocation_response_msg(ptr noundef %36) #6
  %37 = tail call ptr @__errno_location() #7
  store i32 %.0.i, ptr %37, align 4
  %.not27 = icmp ne i32 %.0.i, 0
  %38 = sext i1 %.not27 to i32
  br label %39

39:                                               ; preds = %10, %_terminate_batch_script_step.exit
  %.020 = phi i32 [ %38, %_terminate_batch_script_step.exit ], [ -1, %10 ]
  call void @llvm.lifetime.end.p0(i64 8, ptr nonnull %8) #6
  br label %77

40:                                               ; preds = %2
  %41 = call i32 @slurm_get_job_steps(i64 noundef 0, i32 noundef %0, i32 noundef %1, ptr noundef nonnull %7, i16 noundef zeroext 1) #6
  %.not = icmp eq i32 %41, 0
  br i1 %.not, label %.preheader, label %47

.preheader:                                       ; preds = %40
  %42 = load ptr, ptr %7, align 8
  %43 = getelementptr inbounds nuw i8, ptr %42, i64 8
  %44 = load i32, ptr %43, align 8
  %.not30 = icmp eq i32 %44, 0
  br i1 %.not30, label %.loopexit, label %.lr.ph

.lr.ph:                                           ; preds = %.preheader
  %45 = getelementptr inbounds nuw i8, ptr %42, i64 16
  %46 = load ptr, ptr %45, align 8
  %wide.trip.count = zext i32 %44 to i64
  br label %50

47:                                               ; preds = %40
  %48 = tail call ptr @__errno_location() #7
  %49 = load i32, ptr %48, align 4
  br label %76

50:                                               ; preds = %.lr.ph, %74
  %indvars.iv = phi i64 [ 0, %.lr.ph ], [ %indvars.iv.next, %74 ]
  %51 = getelementptr inbounds nuw %struct.job_step_info_t, ptr %46, i64 %indvars.iv
  %52 = getelementptr inbounds nuw i8, ptr %51, i64 168
  %53 = load i32, ptr %52, align 8
  %54 = icmp eq i32 %53, %0
  br i1 %54, label %55, label %74

55:                                               ; preds = %50
  %56 = getelementptr inbounds nuw i8, ptr %51, i64 176
  %57 = load i32, ptr %56, align 8
  %58 = icmp eq i32 %57, %1
  br i1 %58, label %59, label %74

59:                                               ; preds = %55
  call void @llvm.lifetime.start.p0(i64 32, ptr nonnull %3) #6
  store i64 4294901760, ptr %3, align 8
  %60 = getelementptr inbounds nuw i8, ptr %3, i64 8
  %61 = getelementptr inbounds nuw i8, ptr %51, i64 160
  call void @llvm.memcpy.p0.p0.i64(ptr noundef nonnull align 8 dereferenceable(24) %60, ptr noundef nonnull readonly align 8 dereferenceable(24) %61, i64 24, i1 false)
  %62 = getelementptr inbounds nuw i8, ptr %51, i64 80
  %63 = load ptr, ptr %62, align 8
  %64 = call fastcc i32 @_local_send_recv_rc_msgs(ptr noundef %63, i32 noundef 6006, ptr noundef %3)
  %65 = icmp eq i32 %64, -1
  %66 = tail call ptr @__errno_location() #7
  br i1 %65, label %69, label %._terminate_job_step.exit_crit_edge

._terminate_job_step.exit_crit_edge:              ; preds = %59
  %67 = icmp ne i32 %64, 0
  %68 = sext i1 %67 to i32
  br label %_terminate_job_step.exit

69:                                               ; preds = %59
  %70 = load i32, ptr %66, align 4
  %71 = icmp eq i32 %70, 2021
  br i1 %71, label %72, label %_terminate_job_step.exit

72:                                               ; preds = %69
  store i32 0, ptr %66, align 4
  br label %_terminate_job_step.exit

_terminate_job_step.exit:                         ; preds = %._terminate_job_step.exit_crit_edge, %69, %72
  %.0.i28 = phi i32 [ %68, %._terminate_job_step.exit_crit_edge ], [ -1, %69 ], [ 0, %72 ]
  call void @llvm.lifetime.end.p0(i64 32, ptr nonnull %3) #6
  %73 = load i32, ptr %66, align 4
  %.pre = load ptr, ptr %7, align 8
  br label %.loopexit

74:                                               ; preds = %50, %55
  %indvars.iv.next = add nuw nsw i64 %indvars.iv, 1
  %exitcond.not = icmp eq i64 %indvars.iv.next, %wide.trip.count
  br i1 %exitcond.not, label %.loopexit, label %50, !llvm.loop !12

.loopexit:                                        ; preds = %74, %.preheader, %_terminate_job_step.exit
  %75 = phi ptr [ %.pre, %_terminate_job_step.exit ], [ %42, %.preheader ], [ %42, %74 ]
  %.119 = phi i32 [ %.0.i28, %_terminate_job_step.exit ], [ 0, %.preheader ], [ 0, %74 ]
  %.1 = phi i32 [ %73, %_terminate_job_step.exit ], [ 0, %.preheader ], [ 0, %74 ]
  call void @slurm_free_job_step_info_response_msg(ptr noundef %75) #6
  %.pre33 = tail call ptr @__errno_location() #7
  br label %76

76:                                               ; preds = %.loopexit, %47
  %.pre-phi = phi ptr [ %.pre33, %.loopexit ], [ %48, %47 ]
  %.018 = phi i32 [ %.119, %.loopexit ], [ -1, %47 ]
  %.0 = phi i32 [ %.1, %.loopexit ], [ %49, %47 ]
  store i32 %.0, ptr %.pre-phi, align 4
  br label %77

77:                                               ; preds = %76, %39
  %.121 = phi i32 [ %.020, %39 ], [ %.018, %76 ]
  call void @llvm.lifetime.end.p0(i64 8, ptr nonnull %7) #6
  ret i32 %.121
}